target datalayout = "e-m:e-p270:32:32-p271:32:32-p272:64:64-i64:64-i128:128-f80:128-n8:16:32:64-S128"
target triple = "x86_64-pc-linux-gnu"

%struct._wmem_strbuf_t = type { ptr, ptr, i64, i64 }
%struct.__va_list_tag = type { i32, i32, ptr, ptr }

@.str = private unnamed_addr constant [23 x i8] c"%s: vsnprintf: (%d) %s\00", align 1
@__func__._strbuf_vsnprintf = private unnamed_addr constant [18 x i8] c"_strbuf_vsnprintf\00", align 1

; Function Attrs: alwaysinline
define internal i32 @vsnprintf.inline(ptr noalias %0, i64 %1, ptr noalias %2, ptr %3) #14 {
  %5 = alloca ptr, align 8
  %6 = alloca i64, align 8
  %7 = alloca ptr, align 8
  %8 = alloca ptr, align 8
  store ptr %0, ptr %5, align 8
  store i64 %1, ptr %6, align 8
  store ptr %2, ptr %7, align 8
  store ptr %3, ptr %8, align 8
  %9 = load ptr, ptr %5, align 8
  %10 = load i64, ptr %6, align 8
  %11 = load ptr, ptr %5, align 8
  %12 = call i64 @llvm.objectsize.i64.p0(ptr %11, i1 false, i1 true, i1 true)
  %13 = load ptr, ptr %7, align 8
  %14 = load ptr, ptr %8, align 8
  %15 = call i32 @__vsnprintf_chk(ptr noundef %9, i64 noundef %10, i32 noundef 2, i64 noundef %12, ptr noundef %13, ptr noundef %14)
  ret i32 %15
}

; Function Attrs: inlinehint null_pointer_is_valid sspstrong uwtable
define internal void @wmem_strbuf_grow(ptr noundef %0, i64 noundef %1) #5 {
  %3 = alloca ptr, align 8
  %4 = alloca i64, align 8
  %5 = alloca i64, align 8
  %6 = alloca i64, align 8
  %7 = alloca i32, align 4
  store ptr %0, ptr %3, align 8
  store i64 %1, ptr %4, align 8
  call void @llvm.lifetime.start.p0(i64 8, ptr %5) #15
  call void @llvm.lifetime.start.p0(i64 8, ptr %6) #15
  %8 = load ptr, ptr %3, align 8
  %9 = getelementptr inbounds nuw %struct._wmem_strbuf_t, ptr %8, i32 0, i32 3
  %10 = load i64, ptr %9, align 8
  %11 = load ptr, ptr %3, align 8
  %12 = getelementptr inbounds nuw %struct._wmem_strbuf_t, ptr %11, i32 0, i32 2
  %13 = load i64, ptr %12, align 8
  %14 = sub i64 %10, %13
  %15 = sub i64 %14, 1
  %16 = load i64, ptr %4, align 8
  %17 = icmp uge i64 %15, %16
  br i1 %17, label %18, label %19

18:                                               ; preds = %2
  store i32 1, ptr %7, align 4
  br label %57

19:                                               ; preds = %2
  %20 = load ptr, ptr %3, align 8
  %21 = getelementptr inbounds nuw %struct._wmem_strbuf_t, ptr %20, i32 0, i32 3
  %22 = load i64, ptr %21, align 8
  store i64 %22, ptr %5, align 8
  %23 = load ptr, ptr %3, align 8
  %24 = getelementptr inbounds nuw %struct._wmem_strbuf_t, ptr %23, i32 0, i32 2
  %25 = load i64, ptr %24, align 8
  %26 = load i64, ptr %4, align 8
  %27 = add i64 %25, %26
  store i64 %27, ptr %6, align 8
  br label %28

28:                                               ; preds = %33, %19
  %29 = load i64, ptr %5, align 8
  %30 = load i64, ptr %6, align 8
  %31 = add i64 %30, 1
  %32 = icmp ult i64 %29, %31
  br i1 %32, label %33, label %36

33:                                               ; preds = %28
  %34 = load i64, ptr %5, align 8
  %35 = mul i64 %34, 2
  store i64 %35, ptr %5, align 8
  br label %28, !llvm.loop !8

36:                                               ; preds = %28
  %37 = load i64, ptr %5, align 8
  %38 = load ptr, ptr %3, align 8
  %39 = getelementptr inbounds nuw %struct._wmem_strbuf_t, ptr %38, i32 0, i32 3
  %40 = load i64, ptr %39, align 8
  %41 = icmp eq i64 %37, %40
  br i1 %41, label %42, label %43

42:                                               ; preds = %36
  store i32 1, ptr %7, align 4
  br label %57

43:                                               ; preds = %36
  %44 = load ptr, ptr %3, align 8
  %45 = getelementptr inbounds nuw %struct._wmem_strbuf_t, ptr %44, i32 0, i32 0
  %46 = load ptr, ptr %45, align 8
  %47 = load ptr, ptr %3, align 8
  %48 = getelementptr inbounds nuw %struct._wmem_strbuf_t, ptr %47, i32 0, i32 1
  %49 = load ptr, ptr %48, align 8
  %50 = load i64, ptr %5, align 8
  %51 = call ptr @wmem_realloc(ptr noundef %46, ptr noundef %49, i64 noundef %50) #18
  %52 = load ptr, ptr %3, align 8
  %53 = getelementptr inbounds nuw %struct._wmem_strbuf_t, ptr %52, i32 0, i32 1
  store ptr %51, ptr %53, align 8
  %54 = load i64, ptr %5, align 8
  %55 = load ptr, ptr %3, align 8
  %56 = getelementptr inbounds nuw %struct._wmem_strbuf_t, ptr %55, i32 0, i32 3
  store i64 %54, ptr %56, align 8
  store i32 0, ptr %7, align 4
  br label %57

57:                                               ; preds = %43, %42, %18
  call void @llvm.lifetime.end.p0(i64 8, ptr %6) #15
  call void @llvm.lifetime.end.p0(i64 8, ptr %5) #15
  %58 = load i32, ptr %7, align 4
  switch i32 %58, label %60 [
    i32 0, label %59
    i32 1, label %59
  ]

59:                                               ; preds = %57, %57
  ret void

60:                                               ; preds = %57
  unreachable
}

; Function Attrs: inlinehint null_pointer_is_valid sspstrong uwtable
define internal i32 @_strbuf_vsnprintf(ptr noundef %0, ptr noundef %1, ptr noundef %2) #5 {
  %4 = alloca i32, align 4
  %5 = alloca ptr, align 8
  %6 = alloca ptr, align 8
  %7 = alloca ptr, align 8
  %8 = alloca i32, align 4
  %9 = alloca ptr, align 8
  %10 = alloca i64, align 8
  %11 = alloca i32, align 4
  store ptr %0, ptr %5, align 8
  store ptr %1, ptr %6, align 8
  store ptr %2, ptr %7, align 8
  call void @llvm.lifetime.start.p0(i64 4, ptr %8) #15
  call void @llvm.lifetime.start.p0(i64 8, ptr %9) #15
  %12 = load ptr, ptr %5, align 8
  %13 = getelementptr inbounds nuw %struct._wmem_strbuf_t, ptr %12, i32 0, i32 1
  %14 = load ptr, ptr %13, align 8
  %15 = load ptr, ptr %5, align 8
  %16 = getelementptr inbounds nuw %struct._wmem_strbuf_t, ptr %15, i32 0, i32 2
  %17 = load i64, ptr %16, align 8
  %18 = getelementptr i8, ptr %14, i64 %17
  store ptr %18, ptr %9, align 8
  call void @llvm.lifetime.start.p0(i64 8, ptr %10) #15
  %19 = load ptr, ptr %5, align 8
  %20 = getelementptr inbounds nuw %struct._wmem_strbuf_t, ptr %19, i32 0, i32 3
  %21 = load i64, ptr %20, align 8
  %22 = load ptr, ptr %5, align 8
  %23 = getelementptr inbounds nuw %struct._wmem_strbuf_t, ptr %22, i32 0, i32 2
  %24 = load i64, ptr %23, align 8
  %25 = sub i64 %21, %24
  store i64 %25, ptr %10, align 8
  %26 = load ptr, ptr %9, align 8
  %27 = load i64, ptr %10, align 8
  %28 = load ptr, ptr %6, align 8
  %29 = load ptr, ptr %7, align 8
  %30 = call i32 @vsnprintf.inline(ptr noundef %26, i64 noundef %27, ptr noundef %28, ptr noundef %29) #15
  store i32 %30, ptr %8, align 4
  %31 = load i32, ptr %8, align 4
  %32 = icmp slt i32 %31, 0
  br i1 %32, label %33, label %38

33:                                               ; preds = %3
  %34 = load i32, ptr %8, align 4
  %35 = call ptr @__errno_location() #19
  %36 = load i32, ptr %35, align 4
  %37 = call ptr @g_strerror(i32 noundef %36) #19
  call void (ptr, i32, ptr, ...) @g_log(ptr noundef null, i32 noundef 16, ptr noundef @.str, ptr noundef @__func__._strbuf_vsnprintf, i32 noundef %34, ptr noundef %37)
  store i32 -1, ptr %4, align 4
  store i32 1, ptr %11, align 4
  br label %59

38:                                               ; preds = %3
  %39 = load i32, ptr %8, align 4
  %40 = sext i32 %39 to i64
  %41 = load i64, ptr %10, align 8
  %42 = icmp ult i64 %40, %41
  br i1 %42, label %43, label %50

43:                                               ; preds = %38
  %44 = load i32, ptr %8, align 4
  %45 = sext i32 %44 to i64
  %46 = load ptr, ptr %5, align 8
  %47 = getelementptr inbounds nuw %struct._wmem_strbuf_t, ptr %46, i32 0, i32 2
  %48 = load i64, ptr %47, align 8
  %49 = add i64 %48, %45
  store i64 %49, ptr %47, align 8
  store i32 0, ptr %4, align 4
  store i32 1, ptr %11, align 4
  br label %59

50:                                               ; preds = %38
  %51 = load ptr, ptr %5, align 8
  %52 = getelementptr inbounds nuw %struct._wmem_strbuf_t, ptr %51, i32 0, i32 1
  %53 = load ptr, ptr %52, align 8
  %54 = load ptr, ptr %5, align 8
  %55 = getelementptr inbounds nuw %struct._wmem_strbuf_t, ptr %54, i32 0, i32 2
  %56 = load i64, ptr %55, align 8
  %57 = getelementptr i8, ptr %53, i64 %56
  store i8 0, ptr %57, align 1
  %58 = load i32, ptr %8, align 4
  store i32 %58, ptr %4, align 4
  store i32 1, ptr %11, align 4
  br label %59

59:                                               ; preds = %50, %43, %33
  call void @llvm.lifetime.end.p0(i64 8, ptr %10) #15
  call void @llvm.lifetime.end.p0(i64 8, ptr %9) #15
  call void @llvm.lifetime.end.p0(i64 4, ptr %8) #15
  %60 = load i32, ptr %4, align 4
  ret i32 %60
}

; Function Attrs: null_pointer_is_valid sspstrong uwtable
define void @wmem_strbuf_append_vprintf(ptr noundef %0, ptr noundef %1, ptr noundef %2) #0 {
  %4 = alloca ptr, align 8
  %5 = alloca ptr, align 8
  %6 = alloca ptr, align 8
  %7 = alloca i32, align 4
  %8 = alloca [1 x %struct.__va_list_tag], align 16
  %9 = alloca i32, align 4
  store ptr %0, ptr %4, align 8
  store ptr %1, ptr %5, align 8
  store ptr %2, ptr %6, align 8
  call void @llvm.lifetime.start.p0(i64 4, ptr %7) #15
  call void @llvm.lifetime.start.p0(i64 24, ptr %8) #15
  %10 = getelementptr inbounds [1 x %struct.__va_list_tag], ptr %8, i64 0, i64 0
  %11 = load ptr, ptr %6, align 8
  call void @llvm.va_copy.p0(ptr %10, ptr %11)
  %12 = load ptr, ptr %4, align 8
  %13 = load ptr, ptr %5, align 8
  %14 = getelementptr inbounds [1 x %struct.__va_list_tag], ptr %8, i64 0, i64 0
  %15 = call i32 @_strbuf_vsnprintf(ptr noundef %12, ptr noundef %13, ptr noundef %14)
  store i32 %15, ptr %7, align 4
  %16 = getelementptr inbounds [1 x %struct.__va_list_tag], ptr %8, i64 0, i64 0
  call void @llvm.va_end.p0(ptr %16)
  %17 = load i32, ptr %7, align 4
  %18 = icmp sle i32 %17, 0
  br i1 %18, label %19, label %20

19:                                               ; preds = %3
  store i32 1, ptr %9, align 4
  br label %31

20:                                               ; preds = %3
  %21 = load ptr, ptr %4, align 8
  %22 = load i32, ptr %7, align 4
  %23 = sext i32 %22 to i64
  call void @wmem_strbuf_grow(ptr noundef %21, i64 noundef %23)
  %24 = load ptr, ptr %4, align 8
  %25 = load ptr, ptr %5, align 8
  %26 = load ptr, ptr %6, align 8
  %27 = call i32 @_strbuf_vsnprintf(ptr noundef %24, ptr noundef %25, ptr noundef %26)
  store i32 %27, ptr %7, align 4
  br label %28

28:                                               ; preds = %20
  br label %29

29:                                               ; preds = %28
  br label %30

30:                                               ; preds = %29
  store i32 0, ptr %9, align 4
  br label %31

31:                                               ; preds = %30, %19
  call void @llvm.lifetime.end.p0(i64 24, ptr %8) #15
  call void @llvm.lifetime.end.p0(i64 4, ptr %7) #15
  %32 = load i32, ptr %9, align 4
  switch i32 %32, label %34 [
    i32 0, label %33
    i32 1, label %33
  ]

33:                                               ; preds = %31, %31
  ret void

34:                                               ; preds = %31
  unreachable
}