; Function Attrs: null_pointer_is_valid sspstrong uwtable
define void @wmem_strbuf_append_vprintf(ptr noundef captures(none) %0, ptr noundef %1, ptr noundef %2) local_unnamed_addr #0 {
  %4 = alloca [1 x %struct.__va_list_tag], align 16
  call void @llvm.lifetime.start.p0(i64 24, ptr nonnull %4) #17
  call void @llvm.va_copy.p0(ptr nonnull %4, ptr %2)
  %5 = getelementptr inbounds nuw i8, ptr %0, i64 8
  %6 = load ptr, ptr %5, align 8
  %7 = getelementptr inbounds nuw i8, ptr %0, i64 16
  %8 = load i64, ptr %7, align 8
  %9 = getelementptr i8, ptr %6, i64 %8
  %10 = getelementptr inbounds nuw i8, ptr %0, i64 24
  %11 = load i64, ptr %10, align 8
  %12 = sub i64 %11, %8
  %13 = call i32 @__vsnprintf_chk(ptr noundef %9, i64 noundef %12, i32 noundef 2, i64 noundef -1, ptr noundef %1, ptr noundef nonnull %4) #17
  %14 = icmp slt i32 %13, 0
  br i1 %14, label %15, label %19

15:                                               ; preds = %3
  %16 = tail call ptr @__errno_location() #20
  %17 = load i32, ptr %16, align 4
  %18 = call ptr @g_strerror(i32 noundef %17) #20
  call void (ptr, i32, ptr, ...) @g_log(ptr noundef null, i32 noundef 16, ptr noundef nonnull @.str, ptr noundef nonnull @__func__._strbuf_vsnprintf, i32 noundef %13, ptr noundef %18)
  br label %_strbuf_vsnprintf.exit.thread

19:                                               ; preds = %3
  %20 = zext nneg i32 %13 to i64
  %21 = icmp ugt i64 %12, %20
  br i1 %21, label %22, label %_strbuf_vsnprintf.exit

22:                                               ; preds = %19
  %23 = load i64, ptr %7, align 8
  %24 = add i64 %23, %20
  store i64 %24, ptr %7, align 8
  br label %_strbuf_vsnprintf.exit.thread

_strbuf_vsnprintf.exit.thread:                    ; preds = %15, %22
  call void @llvm.va_end.p0(ptr nonnull %4)
  br label %_strbuf_vsnprintf.exit10

_strbuf_vsnprintf.exit:                           ; preds = %19
  %25 = load ptr, ptr %5, align 8
  %26 = load i64, ptr %7, align 8
  %27 = getelementptr i8, ptr %25, i64 %26
  store i8 0, ptr %27, align 1
  call void @llvm.va_end.p0(ptr nonnull %4)
  %28 = icmp eq i32 %13, 0
  br i1 %28, label %_strbuf_vsnprintf.exit10, label %29

29:                                               ; preds = %_strbuf_vsnprintf.exit
  %30 = load i64, ptr %10, align 8
  %31 = load i64, ptr %7, align 8
  %32 = xor i64 %31, -1
  %33 = add i64 %30, %32
  %.not.i = icmp ult i64 %33, %20
  br i1 %.not.i, label %34, label %.wmem_strbuf_grow.exit_crit_edge

.wmem_strbuf_grow.exit_crit_edge:                 ; preds = %29
  %.pre = load ptr, ptr %5, align 8
  br label %wmem_strbuf_grow.exit

34:                                               ; preds = %29
  %35 = add nuw nsw i64 %20, 1
  %36 = add i64 %35, %31
  br label %37

37:                                               ; preds = %37, %34
  %.0.i8 = phi i64 [ %30, %34 ], [ %39, %37 ]
  %38 = icmp ult i64 %.0.i8, %36
  %39 = shl i64 %.0.i8, 1
  br i1 %38, label %37, label %40, !llvm.loop !20

40:                                               ; preds = %37
  %41 = icmp eq i64 %.0.i8, %30
  %.pre12 = load ptr, ptr %5, align 8
  br i1 %41, label %wmem_strbuf_grow.exit, label %42

42:                                               ; preds = %40
  %43 = load ptr, ptr %0, align 8
  %44 = call ptr @wmem_realloc(ptr noundef %43, ptr noundef %.pre12, i64 noundef %.0.i8) #19
  store ptr %44, ptr %5, align 8
  store i64 %.0.i8, ptr %10, align 8
  %.pre13 = load i64, ptr %7, align 8
  br label %wmem_strbuf_grow.exit

wmem_strbuf_grow.exit:                            ; preds = %.wmem_strbuf_grow.exit_crit_edge, %40, %42
  %45 = phi i64 [ %30, %.wmem_strbuf_grow.exit_crit_edge ], [ %30, %40 ], [ %.0.i8, %42 ]
  %46 = phi i64 [ %31, %.wmem_strbuf_grow.exit_crit_edge ], [ %31, %40 ], [ %.pre13, %42 ]
  %47 = phi ptr [ %.pre, %.wmem_strbuf_grow.exit_crit_edge ], [ %.pre12, %40 ], [ %44, %42 ]
  %48 = getelementptr i8, ptr %47, i64 %46
  %49 = sub i64 %45, %46
  %50 = call i32 @__vsnprintf_chk(ptr noundef %48, i64 noundef %49, i32 noundef 2, i64 noundef -1, ptr noundef %1, ptr noundef %2) #17
  %51 = icmp slt i32 %50, 0
  br i1 %51, label %52, label %56

52:                                               ; preds = %wmem_strbuf_grow.exit
  %53 = tail call ptr @__errno_location() #20
  %54 = load i32, ptr %53, align 4
  %55 = call ptr @g_strerror(i32 noundef %54) #20
  call void (ptr, i32, ptr, ...) @g_log(ptr noundef null, i32 noundef 16, ptr noundef nonnull @.str, ptr noundef nonnull @__func__._strbuf_vsnprintf, i32 noundef %50, ptr noundef %55)
  br label %_strbuf_vsnprintf.exit10

56:                                               ; preds = %wmem_strbuf_grow.exit
  %57 = zext nneg i32 %50 to i64
  %58 = icmp ugt i64 %49, %57
  br i1 %58, label %59, label %62

59:                                               ; preds = %56
  %60 = load i64, ptr %7, align 8
  %61 = add i64 %60, %57
  store i64 %61, ptr %7, align 8
  br label %_strbuf_vsnprintf.exit10

62:                                               ; preds = %56
  %63 = load ptr, ptr %5, align 8
  %64 = load i64, ptr %7, align 8
  %65 = getelementptr i8, ptr %63, i64 %64
  store i8 0, ptr %65, align 1
  br label %_strbuf_vsnprintf.exit10

_strbuf_vsnprintf.exit10:                         ; preds = %62, %59, %52, %_strbuf_vsnprintf.exit.thread, %_strbuf_vsnprintf.exit
  call void @llvm.lifetime.end.p0(i64 24, ptr nonnull %4) #17
  ret void
}